target datalayout = "e-m:e-p270:32:32-p271:32:32-p272:64:64-i64:64-i128:128-f80:128-n8:16:32:64-S128"
target triple = "x86_64-pc-linux-gnu"

%struct.AVFilterContext = type { ptr, ptr, ptr, ptr, ptr, i32, ptr, ptr, i32, ptr, ptr, i32, i32, ptr, ptr, ptr, ptr, i32, ptr, i32, i32 }
%struct.AudioIIRContext = type { ptr, ptr, ptr, ptr, double, double, double, i32, i32, i32, i32, i32, i32, i32, i32, %struct.AVRational, ptr, ptr, i32, i32, ptr }
%struct.AVRational = type { i32, i32 }
%struct.IIRChannel = type { [2 x i32], [2 x ptr], double, [2 x ptr], double, ptr, i32 }
%struct.ThreadData = type { ptr, ptr }
%struct.AVChannelLayout = type { i32, i32, %union.anon.1, ptr }
%union.anon.1 = type { i64 }
%struct.AVFrame = type { [8 x ptr], [8 x i32], ptr, i32, i32, i32, i32, i32, %struct.AVRational, i64, i64, %struct.AVRational, i32, ptr, i32, i32, [8 x ptr], ptr, i32, ptr, i32, i32, i32, i32, i32, i32, i32, i64, ptr, i32, ptr, ptr, i64, i64, i64, i64, ptr, %struct.AVChannelLayout, i64 }
%struct.BiquadContext = type { [3 x double], [3 x double], double, double }

; Function Attrs: nounwind uwtable
define internal i32 @iir_ch_serial_dblp(ptr noundef %0, ptr noundef %1, i32 noundef %2, i32 noundef %3) #1 {
  %5 = alloca ptr, align 8
  %6 = alloca ptr, align 8
  %7 = alloca i32, align 4
  %8 = alloca i32, align 4
  %9 = alloca ptr, align 8
  %10 = alloca double, align 8
  %11 = alloca double, align 8
  %12 = alloca double, align 8
  %13 = alloca double, align 8
  %14 = alloca ptr, align 8
  %15 = alloca ptr, align 8
  %16 = alloca ptr, align 8
  %17 = alloca ptr, align 8
  %18 = alloca ptr, align 8
  %19 = alloca ptr, align 8
  %20 = alloca double, align 8
  %21 = alloca ptr, align 8
  %22 = alloca i32, align 4
  %23 = alloca i32, align 4
  %24 = alloca i32, align 4
  %25 = alloca double, align 8
  %26 = alloca double, align 8
  %27 = alloca double, align 8
  %28 = alloca double, align 8
  %29 = alloca double, align 8
  %30 = alloca double, align 8
  %31 = alloca double, align 8
  %32 = alloca double, align 8
  %33 = alloca double, align 8
  store ptr %0, ptr %5, align 8, !tbaa !4
  store ptr %1, ptr %6, align 8, !tbaa !45
  store i32 %2, ptr %7, align 4, !tbaa !43
  store i32 %3, ptr %8, align 4, !tbaa !43
  call void @llvm.lifetime.start.p0(i64 8, ptr %9) #12
  %34 = load ptr, ptr %5, align 8, !tbaa !4
  %35 = getelementptr inbounds nuw %struct.AVFilterContext, ptr %34, i32 0, i32 9
  %36 = load ptr, ptr %35, align 8, !tbaa !9
  store ptr %36, ptr %9, align 8, !tbaa !22
  call void @llvm.lifetime.start.p0(i64 8, ptr %10) #12
  %37 = load ptr, ptr %9, align 8, !tbaa !22
  %38 = getelementptr inbounds nuw %struct.AudioIIRContext, ptr %37, i32 0, i32 4
  %39 = load double, ptr %38, align 8, !tbaa !153
  store double %39, ptr %10, align 8, !tbaa !95
  call void @llvm.lifetime.start.p0(i64 8, ptr %11) #12
  %40 = load ptr, ptr %9, align 8, !tbaa !22
  %41 = getelementptr inbounds nuw %struct.AudioIIRContext, ptr %40, i32 0, i32 5
  %42 = load double, ptr %41, align 8, !tbaa !154
  store double %42, ptr %11, align 8, !tbaa !95
  call void @llvm.lifetime.start.p0(i64 8, ptr %12) #12
  %43 = load ptr, ptr %9, align 8, !tbaa !22
  %44 = getelementptr inbounds nuw %struct.AudioIIRContext, ptr %43, i32 0, i32 6
  %45 = load double, ptr %44, align 8, !tbaa !155
  store double %45, ptr %12, align 8, !tbaa !95
  call void @llvm.lifetime.start.p0(i64 8, ptr %13) #12
  %46 = load double, ptr %12, align 8, !tbaa !95
  %47 = fsub nsz double 1.000000e+00, %46
  store double %47, ptr %13, align 8, !tbaa !95
  call void @llvm.lifetime.start.p0(i64 8, ptr %14) #12
  %48 = load ptr, ptr %6, align 8, !tbaa !45
  store ptr %48, ptr %14, align 8, !tbaa !156
  call void @llvm.lifetime.start.p0(i64 8, ptr %15) #12
  %49 = load ptr, ptr %14, align 8, !tbaa !156
  %50 = getelementptr inbounds nuw %struct.ThreadData, ptr %49, i32 0, i32 0
  %51 = load ptr, ptr %50, align 8, !tbaa !75
  store ptr %51, ptr %15, align 8, !tbaa !60
  call void @llvm.lifetime.start.p0(i64 8, ptr %16) #12
  %52 = load ptr, ptr %14, align 8, !tbaa !156
  %53 = getelementptr inbounds nuw %struct.ThreadData, ptr %52, i32 0, i32 1
  %54 = load ptr, ptr %53, align 8, !tbaa !77
  store ptr %54, ptr %16, align 8, !tbaa !60
  call void @llvm.lifetime.start.p0(i64 8, ptr %17) #12
  %55 = load ptr, ptr %15, align 8, !tbaa !60
  %56 = getelementptr inbounds nuw %struct.AVFrame, ptr %55, i32 0, i32 2
  %57 = load ptr, ptr %56, align 8, !tbaa !158
  %58 = load i32, ptr %7, align 4, !tbaa !43
  %59 = sext i32 %58 to i64
  %60 = getelementptr inbounds ptr, ptr %57, i64 %59
  %61 = load ptr, ptr %60, align 8, !tbaa !42
  store ptr %61, ptr %17, align 8, !tbaa !94
  call void @llvm.lifetime.start.p0(i64 8, ptr %18) #12
  %62 = load ptr, ptr %16, align 8, !tbaa !60
  %63 = getelementptr inbounds nuw %struct.AVFrame, ptr %62, i32 0, i32 2
  %64 = load ptr, ptr %63, align 8, !tbaa !158
  %65 = load i32, ptr %7, align 4, !tbaa !43
  %66 = sext i32 %65 to i64
  %67 = getelementptr inbounds ptr, ptr %64, i64 %66
  %68 = load ptr, ptr %67, align 8, !tbaa !42
  store ptr %68, ptr %18, align 8, !tbaa !94
  call void @llvm.lifetime.start.p0(i64 8, ptr %19) #12
  %69 = load ptr, ptr %9, align 8, !tbaa !22
  %70 = getelementptr inbounds nuw %struct.AudioIIRContext, ptr %69, i32 0, i32 17
  %71 = load ptr, ptr %70, align 8, !tbaa !47
  %72 = load i32, ptr %7, align 4, !tbaa !43
  %73 = sext i32 %72 to i64
  %74 = getelementptr inbounds %struct.IIRChannel, ptr %71, i64 %73
  store ptr %74, ptr %19, align 8, !tbaa !49
  call void @llvm.lifetime.start.p0(i64 8, ptr %20) #12
  %75 = load ptr, ptr %19, align 8, !tbaa !49
  %76 = getelementptr inbounds nuw %struct.IIRChannel, ptr %75, i32 0, i32 2
  %77 = load double, ptr %76, align 8, !tbaa !97
  store double %77, ptr %20, align 8, !tbaa !95
  call void @llvm.lifetime.start.p0(i64 8, ptr %21) #12
  %78 = load ptr, ptr %19, align 8, !tbaa !49
  %79 = getelementptr inbounds nuw %struct.IIRChannel, ptr %78, i32 0, i32 6
  store ptr %79, ptr %21, align 8, !tbaa !159
  call void @llvm.lifetime.start.p0(i64 4, ptr %22) #12
  %80 = load ptr, ptr %19, align 8, !tbaa !49
  %81 = getelementptr inbounds nuw %struct.IIRChannel, ptr %80, i32 0, i32 0
  %82 = getelementptr inbounds [2 x i32], ptr %81, i64 0, i64 0
  %83 = load i32, ptr %82, align 8, !tbaa !43
  %84 = load ptr, ptr %19, align 8, !tbaa !49
  %85 = getelementptr inbounds nuw %struct.IIRChannel, ptr %84, i32 0, i32 0
  %86 = getelementptr inbounds [2 x i32], ptr %85, i64 0, i64 1
  %87 = load i32, ptr %86, align 4, !tbaa !43
  %88 = icmp sgt i32 %83, %87
  br i1 %88, label %89, label %94

89:                                               ; preds = %4
  %90 = load ptr, ptr %19, align 8, !tbaa !49
  %91 = getelementptr inbounds nuw %struct.IIRChannel, ptr %90, i32 0, i32 0
  %92 = getelementptr inbounds [2 x i32], ptr %91, i64 0, i64 0
  %93 = load i32, ptr %92, align 8, !tbaa !43
  br label %99

94:                                               ; preds = %4
  %95 = load ptr, ptr %19, align 8, !tbaa !49
  %96 = getelementptr inbounds nuw %struct.IIRChannel, ptr %95, i32 0, i32 0
  %97 = getelementptr inbounds [2 x i32], ptr %96, i64 0, i64 1
  %98 = load i32, ptr %97, align 4, !tbaa !43
  br label %99

99:                                               ; preds = %94, %89
  %100 = phi i32 [ %93, %89 ], [ %98, %94 ]
  %101 = add nsw i32 %100, 1
  %102 = sdiv i32 %101, 2
  store i32 %102, ptr %22, align 4, !tbaa !43
  call void @llvm.lifetime.start.p0(i64 4, ptr %23) #12
  call void @llvm.lifetime.start.p0(i64 4, ptr %24) #12
  %103 = load i32, ptr %22, align 4, !tbaa !43
  %104 = sub nsw i32 %103, 1
  store i32 %104, ptr %24, align 4, !tbaa !43
  br label %105

105:                                              ; preds = %250, %99
  %106 = load i32, ptr %24, align 4, !tbaa !43
  %107 = icmp sge i32 %106, 0
  br i1 %107, label %108, label %253

108:                                              ; preds = %105
  call void @llvm.lifetime.start.p0(i64 8, ptr %25) #12
  %109 = load ptr, ptr %19, align 8, !tbaa !49
  %110 = getelementptr inbounds nuw %struct.IIRChannel, ptr %109, i32 0, i32 5
  %111 = load ptr, ptr %110, align 8, !tbaa !133
  %112 = load i32, ptr %24, align 4, !tbaa !43
  %113 = sext i32 %112 to i64
  %114 = getelementptr inbounds %struct.BiquadContext, ptr %111, i64 %113
  %115 = getelementptr inbounds nuw %struct.BiquadContext, ptr %114, i32 0, i32 0
  %116 = getelementptr inbounds [3 x double], ptr %115, i64 0, i64 1
  %117 = load double, ptr %116, align 8, !tbaa !95
  %118 = fneg nsz double %117
  store double %118, ptr %25, align 8, !tbaa !95
  call void @llvm.lifetime.start.p0(i64 8, ptr %26) #12
  %119 = load ptr, ptr %19, align 8, !tbaa !49
  %120 = getelementptr inbounds nuw %struct.IIRChannel, ptr %119, i32 0, i32 5
  %121 = load ptr, ptr %120, align 8, !tbaa !133
  %122 = load i32, ptr %24, align 4, !tbaa !43
  %123 = sext i32 %122 to i64
  %124 = getelementptr inbounds %struct.BiquadContext, ptr %121, i64 %123
  %125 = getelementptr inbounds nuw %struct.BiquadContext, ptr %124, i32 0, i32 0
  %126 = getelementptr inbounds [3 x double], ptr %125, i64 0, i64 2
  %127 = load double, ptr %126, align 8, !tbaa !95
  %128 = fneg nsz double %127
  store double %128, ptr %26, align 8, !tbaa !95
  call void @llvm.lifetime.start.p0(i64 8, ptr %27) #12
  %129 = load ptr, ptr %19, align 8, !tbaa !49
  %130 = getelementptr inbounds nuw %struct.IIRChannel, ptr %129, i32 0, i32 5
  %131 = load ptr, ptr %130, align 8, !tbaa !133
  %132 = load i32, ptr %24, align 4, !tbaa !43
  %133 = sext i32 %132 to i64
  %134 = getelementptr inbounds %struct.BiquadContext, ptr %131, i64 %133
  %135 = getelementptr inbounds nuw %struct.BiquadContext, ptr %134, i32 0, i32 1
  %136 = getelementptr inbounds [3 x double], ptr %135, i64 0, i64 0
  %137 = load double, ptr %136, align 8, !tbaa !95
  store double %137, ptr %27, align 8, !tbaa !95
  call void @llvm.lifetime.start.p0(i64 8, ptr %28) #12
  %138 = load ptr, ptr %19, align 8, !tbaa !49
  %139 = getelementptr inbounds nuw %struct.IIRChannel, ptr %138, i32 0, i32 5
  %140 = load ptr, ptr %139, align 8, !tbaa !133
  %141 = load i32, ptr %24, align 4, !tbaa !43
  %142 = sext i32 %141 to i64
  %143 = getelementptr inbounds %struct.BiquadContext, ptr %140, i64 %142
  %144 = getelementptr inbounds nuw %struct.BiquadContext, ptr %143, i32 0, i32 1
  %145 = getelementptr inbounds [3 x double], ptr %144, i64 0, i64 1
  %146 = load double, ptr %145, align 8, !tbaa !95
  store double %146, ptr %28, align 8, !tbaa !95
  call void @llvm.lifetime.start.p0(i64 8, ptr %29) #12
  %147 = load ptr, ptr %19, align 8, !tbaa !49
  %148 = getelementptr inbounds nuw %struct.IIRChannel, ptr %147, i32 0, i32 5
  %149 = load ptr, ptr %148, align 8, !tbaa !133
  %150 = load i32, ptr %24, align 4, !tbaa !43
  %151 = sext i32 %150 to i64
  %152 = getelementptr inbounds %struct.BiquadContext, ptr %149, i64 %151
  %153 = getelementptr inbounds nuw %struct.BiquadContext, ptr %152, i32 0, i32 1
  %154 = getelementptr inbounds [3 x double], ptr %153, i64 0, i64 2
  %155 = load double, ptr %154, align 8, !tbaa !95
  store double %155, ptr %29, align 8, !tbaa !95
  call void @llvm.lifetime.start.p0(i64 8, ptr %30) #12
  %156 = load ptr, ptr %19, align 8, !tbaa !49
  %157 = getelementptr inbounds nuw %struct.IIRChannel, ptr %156, i32 0, i32 5
  %158 = load ptr, ptr %157, align 8, !tbaa !133
  %159 = load i32, ptr %24, align 4, !tbaa !43
  %160 = sext i32 %159 to i64
  %161 = getelementptr inbounds %struct.BiquadContext, ptr %158, i64 %160
  %162 = getelementptr inbounds nuw %struct.BiquadContext, ptr %161, i32 0, i32 2
  %163 = load double, ptr %162, align 8, !tbaa !161
  store double %163, ptr %30, align 8, !tbaa !95
  call void @llvm.lifetime.start.p0(i64 8, ptr %31) #12
  %164 = load ptr, ptr %19, align 8, !tbaa !49
  %165 = getelementptr inbounds nuw %struct.IIRChannel, ptr %164, i32 0, i32 5
  %166 = load ptr, ptr %165, align 8, !tbaa !133
  %167 = load i32, ptr %24, align 4, !tbaa !43
  %168 = sext i32 %167 to i64
  %169 = getelementptr inbounds %struct.BiquadContext, ptr %166, i64 %168
  %170 = getelementptr inbounds nuw %struct.BiquadContext, ptr %169, i32 0, i32 3
  %171 = load double, ptr %170, align 8, !tbaa !163
  store double %171, ptr %31, align 8, !tbaa !95
  store i32 0, ptr %23, align 4, !tbaa !43
  br label %172

172:                                              ; preds = %230, %108
  %173 = load i32, ptr %23, align 4, !tbaa !43
  %174 = load ptr, ptr %15, align 8, !tbaa !60
  %175 = getelementptr inbounds nuw %struct.AVFrame, ptr %174, i32 0, i32 5
  %176 = load i32, ptr %175, align 8, !tbaa !69
  %177 = icmp slt i32 %173, %176
  br i1 %177, label %178, label %233

178:                                              ; preds = %172
  call void @llvm.lifetime.start.p0(i64 8, ptr %32) #12
  %179 = load double, ptr %10, align 8, !tbaa !95
  %180 = load i32, ptr %24, align 4, !tbaa !43
  %181 = icmp ne i32 %180, 0
  br i1 %181, label %182, label %188

182:                                              ; preds = %178
  %183 = load ptr, ptr %18, align 8, !tbaa !94
  %184 = load i32, ptr %23, align 4, !tbaa !43
  %185 = sext i32 %184 to i64
  %186 = getelementptr inbounds double, ptr %183, i64 %185
  %187 = load double, ptr %186, align 8, !tbaa !95
  br label %194

188:                                              ; preds = %178
  %189 = load ptr, ptr %17, align 8, !tbaa !94
  %190 = load i32, ptr %23, align 4, !tbaa !43
  %191 = sext i32 %190 to i64
  %192 = getelementptr inbounds double, ptr %189, i64 %191
  %193 = load double, ptr %192, align 8, !tbaa !95
  br label %194

194:                                              ; preds = %188, %182
  %195 = phi nsz double [ %187, %182 ], [ %193, %188 ]
  %196 = fmul nsz double %179, %195
  store double %196, ptr %32, align 8, !tbaa !95
  call void @llvm.lifetime.start.p0(i64 8, ptr %33) #12
  %197 = load double, ptr %32, align 8, !tbaa !95
  %198 = load double, ptr %27, align 8, !tbaa !95
  %199 = load double, ptr %30, align 8, !tbaa !95
  %200 = call nsz double @llvm.fmuladd.f64(double %197, double %198, double %199)
  store double %200, ptr %33, align 8, !tbaa !95
  %201 = load double, ptr %28, align 8, !tbaa !95
  %202 = load double, ptr %32, align 8, !tbaa !95
  %203 = load double, ptr %31, align 8, !tbaa !95
  %204 = call nsz double @llvm.fmuladd.f64(double %201, double %202, double %203)
  %205 = load double, ptr %25, align 8, !tbaa !95
  %206 = load double, ptr %33, align 8, !tbaa !95
  %207 = call nsz double @llvm.fmuladd.f64(double %205, double %206, double %204)
  store double %207, ptr %30, align 8, !tbaa !95
  %208 = load double, ptr %29, align 8, !tbaa !95
  %209 = load double, ptr %32, align 8, !tbaa !95
  %210 = load double, ptr %26, align 8, !tbaa !95
  %211 = load double, ptr %33, align 8, !tbaa !95
  %212 = fmul nsz double %210, %211
  %213 = call nsz double @llvm.fmuladd.f64(double %208, double %209, double %212)
  store double %213, ptr %31, align 8, !tbaa !95
  %214 = load double, ptr %11, align 8, !tbaa !95
  %215 = load double, ptr %20, align 8, !tbaa !95
  %216 = fmul nsz double %214, %215
  %217 = load double, ptr %33, align 8, !tbaa !95
  %218 = fmul nsz double %217, %216
  store double %218, ptr %33, align 8, !tbaa !95
  %219 = load double, ptr %33, align 8, !tbaa !95
  %220 = load double, ptr %12, align 8, !tbaa !95
  %221 = load double, ptr %13, align 8, !tbaa !95
  %222 = load double, ptr %32, align 8, !tbaa !95
  %223 = fmul nsz double %221, %222
  %224 = call nsz double @llvm.fmuladd.f64(double %219, double %220, double %223)
  store double %224, ptr %33, align 8, !tbaa !95
  %225 = load double, ptr %33, align 8, !tbaa !95
  %226 = load ptr, ptr %18, align 8, !tbaa !94
  %227 = load i32, ptr %23, align 4, !tbaa !43
  %228 = sext i32 %227 to i64
  %229 = getelementptr inbounds double, ptr %226, i64 %228
  store double %225, ptr %229, align 8, !tbaa !95
  call void @llvm.lifetime.end.p0(i64 8, ptr %33) #12
  call void @llvm.lifetime.end.p0(i64 8, ptr %32) #12
  br label %230

230:                                              ; preds = %194
  %231 = load i32, ptr %23, align 4, !tbaa !43
  %232 = add nsw i32 %231, 1
  store i32 %232, ptr %23, align 4, !tbaa !43
  br label %172, !llvm.loop !167

233:                                              ; preds = %172
  %234 = load double, ptr %30, align 8, !tbaa !95
  %235 = load ptr, ptr %19, align 8, !tbaa !49
  %236 = getelementptr inbounds nuw %struct.IIRChannel, ptr %235, i32 0, i32 5
  %237 = load ptr, ptr %236, align 8, !tbaa !133
  %238 = load i32, ptr %24, align 4, !tbaa !43
  %239 = sext i32 %238 to i64
  %240 = getelementptr inbounds %struct.BiquadContext, ptr %237, i64 %239
  %241 = getelementptr inbounds nuw %struct.BiquadContext, ptr %240, i32 0, i32 2
  store double %234, ptr %241, align 8, !tbaa !161
  %242 = load double, ptr %31, align 8, !tbaa !95
  %243 = load ptr, ptr %19, align 8, !tbaa !49
  %244 = getelementptr inbounds nuw %struct.IIRChannel, ptr %243, i32 0, i32 5
  %245 = load ptr, ptr %244, align 8, !tbaa !133
  %246 = load i32, ptr %24, align 4, !tbaa !43
  %247 = sext i32 %246 to i64
  %248 = getelementptr inbounds %struct.BiquadContext, ptr %245, i64 %247
  %249 = getelementptr inbounds nuw %struct.BiquadContext, ptr %248, i32 0, i32 3
  store double %242, ptr %249, align 8, !tbaa !163
  call void @llvm.lifetime.end.p0(i64 8, ptr %31) #12
  call void @llvm.lifetime.end.p0(i64 8, ptr %30) #12
  call void @llvm.lifetime.end.p0(i64 8, ptr %29) #12
  call void @llvm.lifetime.end.p0(i64 8, ptr %28) #12
  call void @llvm.lifetime.end.p0(i64 8, ptr %27) #12
  call void @llvm.lifetime.end.p0(i64 8, ptr %26) #12
  call void @llvm.lifetime.end.p0(i64 8, ptr %25) #12
  br label %250

250:                                              ; preds = %233
  %251 = load i32, ptr %24, align 4, !tbaa !43
  %252 = add nsw i32 %251, -1
  store i32 %252, ptr %24, align 4, !tbaa !43
  br label %105, !llvm.loop !168

253:                                              ; preds = %105
  call void @llvm.lifetime.end.p0(i64 4, ptr %24) #12
  call void @llvm.lifetime.end.p0(i64 4, ptr %23) #12
  call void @llvm.lifetime.end.p0(i64 4, ptr %22) #12
  call void @llvm.lifetime.end.p0(i64 8, ptr %21) #12
  call void @llvm.lifetime.end.p0(i64 8, ptr %20) #12
  call void @llvm.lifetime.end.p0(i64 8, ptr %19) #12
  call void @llvm.lifetime.end.p0(i64 8, ptr %18) #12
  call void @llvm.lifetime.end.p0(i64 8, ptr %17) #12
  call void @llvm.lifetime.end.p0(i64 8, ptr %16) #12
  call void @llvm.lifetime.end.p0(i64 8, ptr %15) #12
  call void @llvm.lifetime.end.p0(i64 8, ptr %14) #12
  call void @llvm.lifetime.end.p0(i64 8, ptr %13) #12
  call void @llvm.lifetime.end.p0(i64 8, ptr %12) #12
  call void @llvm.lifetime.end.p0(i64 8, ptr %11) #12
  call void @llvm.lifetime.end.p0(i64 8, ptr %10) #12
  call void @llvm.lifetime.end.p0(i64 8, ptr %9) #12
  ret i32 0
}