; Function Attrs: nofree norecurse nosync nounwind memory(readwrite, inaccessiblemem: none) uwtable
define internal noundef i32 @iir_ch_serial_dblp(ptr noundef readonly captures(none) %0, ptr noundef readonly captures(none) %1, i32 noundef %2, i32 %3) #8 {
  %5 = getelementptr inbounds nuw i8, ptr %0, i64 72
  %6 = load ptr, ptr %5, align 8, !tbaa !4
  %7 = getelementptr inbounds nuw i8, ptr %6, i64 32
  %8 = load double, ptr %7, align 8, !tbaa !151
  %9 = getelementptr inbounds nuw i8, ptr %6, i64 48
  %10 = load double, ptr %9, align 8, !tbaa !152
  %11 = fsub nsz double 1.000000e+00, %10
  %12 = load ptr, ptr %1, align 8, !tbaa !59
  %13 = getelementptr inbounds nuw i8, ptr %1, i64 8
  %14 = load ptr, ptr %13, align 8, !tbaa !61
  %15 = getelementptr inbounds nuw i8, ptr %12, i64 96
  %16 = load ptr, ptr %15, align 8, !tbaa !153
  %17 = sext i32 %2 to i64
  %18 = getelementptr inbounds ptr, ptr %16, i64 %17
  %19 = load ptr, ptr %18, align 8, !tbaa !30
  %20 = getelementptr inbounds nuw i8, ptr %14, i64 96
  %21 = load ptr, ptr %20, align 8, !tbaa !153
  %22 = getelementptr inbounds ptr, ptr %21, i64 %17
  %23 = load ptr, ptr %22, align 8, !tbaa !30
  %24 = getelementptr inbounds nuw i8, ptr %6, i64 104
  %25 = load ptr, ptr %24, align 8, !tbaa !34
  %26 = getelementptr inbounds %struct.IIRChannel, ptr %25, i64 %17
  %27 = load i32, ptr %26, align 8, !tbaa !31
  %28 = getelementptr inbounds nuw i8, ptr %26, i64 4
  %29 = load i32, ptr %28, align 4, !tbaa !31
  %. = tail call i32 @llvm.smax.i32(i32 %27, i32 %29)
  %..fr = freeze i32 %.
  %30 = icmp sgt i32 %..fr, 0
  br i1 %30, label %.lr.ph86, label %._crit_edge87

.lr.ph86:                                         ; preds = %4
  %31 = add nuw i32 %..fr, 1
  %32 = sdiv i32 %31, 2
  %.07383 = add nsw i32 %32, -1
  %33 = getelementptr inbounds nuw i8, ptr %26, i64 24
  %34 = load double, ptr %33, align 8, !tbaa !100
  %35 = getelementptr inbounds nuw i8, ptr %6, i64 40
  %36 = load double, ptr %35, align 8, !tbaa !154
  %37 = getelementptr inbounds nuw i8, ptr %26, i64 56
  %38 = load ptr, ptr %37, align 8, !tbaa !129
  %39 = getelementptr inbounds nuw i8, ptr %12, i64 112
  %40 = load i32, ptr %39, align 8, !tbaa !53
  %41 = icmp sgt i32 %40, 0
  %42 = fmul nsz double %36, %34
  %43 = zext i32 %.07383 to i64
  br i1 %41, label %.lr.ph.us.preheader, label %.lr.ph86.split

.lr.ph.us.preheader:                              ; preds = %.lr.ph86
  %wide.trip.count = zext nneg i32 %40 to i64
  br label %.lr.ph.us

.lr.ph.us:                                        ; preds = %.lr.ph.us.preheader, %._crit_edge.us
  %indvars.iv110 = phi i64 [ %43, %.lr.ph.us.preheader ], [ %indvars.iv.next111, %._crit_edge.us ]
  %44 = getelementptr inbounds nuw %struct.BiquadContext, ptr %38, i64 %indvars.iv110
  %45 = getelementptr inbounds nuw i8, ptr %44, i64 8
  %46 = load double, ptr %45, align 8, !tbaa !75
  %47 = fneg nsz double %46
  %48 = getelementptr inbounds nuw i8, ptr %44, i64 16
  %49 = load double, ptr %48, align 8, !tbaa !75
  %50 = fneg nsz double %49
  %51 = getelementptr inbounds nuw i8, ptr %44, i64 24
  %52 = load double, ptr %51, align 8, !tbaa !75
  %53 = getelementptr inbounds nuw i8, ptr %44, i64 32
  %54 = load double, ptr %53, align 8, !tbaa !75
  %55 = getelementptr inbounds nuw i8, ptr %44, i64 40
  %56 = load double, ptr %55, align 8, !tbaa !75
  %57 = getelementptr inbounds nuw i8, ptr %44, i64 48
  %58 = load double, ptr %57, align 8, !tbaa !155
  %59 = getelementptr inbounds nuw i8, ptr %44, i64 56
  %60 = load double, ptr %59, align 8, !tbaa !157
  %.not.us = icmp eq i64 %indvars.iv110, 0
  br i1 %.not.us, label %.lr.ph.split.us.us.preheader, label %.lr.ph.split.us94

.lr.ph.split.us.us.preheader:                     ; preds = %.lr.ph.us
  %wide.trip.count108 = zext nneg i32 %40 to i64
  br label %.lr.ph.split.us.us

.lr.ph.split.us94:                                ; preds = %.lr.ph.us, %.lr.ph.split.us94
  %indvars.iv102 = phi i64 [ %indvars.iv.next103, %.lr.ph.split.us94 ], [ 0, %.lr.ph.us ]
  %.07479.us89 = phi double [ %68, %.lr.ph.split.us94 ], [ %60, %.lr.ph.us ]
  %.07578.us90 = phi double [ %66, %.lr.ph.split.us94 ], [ %58, %.lr.ph.us ]
  %61 = getelementptr inbounds nuw double, ptr %23, i64 %indvars.iv102
  %62 = load double, ptr %61, align 8, !tbaa !75
  %63 = fmul nsz double %8, %62
  %64 = tail call nsz double @llvm.fmuladd.f64(double %63, double %52, double %.07578.us90)
  %65 = tail call nsz double @llvm.fmuladd.f64(double %54, double %63, double %.07479.us89)
  %66 = tail call nsz double @llvm.fmuladd.f64(double %47, double %64, double %65)
  %67 = fmul nsz double %64, %50
  %68 = tail call nsz double @llvm.fmuladd.f64(double %56, double %63, double %67)
  %69 = fmul nsz double %42, %64
  %70 = fmul nsz double %11, %63
  %71 = tail call nsz double @llvm.fmuladd.f64(double %69, double %10, double %70)
  store double %71, ptr %61, align 8, !tbaa !75
  %indvars.iv.next103 = add nuw nsw i64 %indvars.iv102, 1
  %exitcond.not = icmp eq i64 %indvars.iv.next103, %wide.trip.count
  br i1 %exitcond.not, label %._crit_edge.us, label %.lr.ph.split.us94, !llvm.loop !161

._crit_edge.us:                                   ; preds = %.lr.ph.split.us94
  %72 = getelementptr inbounds nuw %struct.BiquadContext, ptr %38, i64 %indvars.iv110, i32 2
  store double %66, ptr %72, align 8, !tbaa !155
  %73 = getelementptr inbounds nuw %struct.BiquadContext, ptr %38, i64 %indvars.iv110, i32 3
  store double %68, ptr %73, align 8, !tbaa !157
  %indvars.iv.next111 = add nsw i64 %indvars.iv110, -1
  %74 = trunc nuw i64 %indvars.iv110 to i32
  %75 = icmp sgt i32 %74, 0
  br i1 %75, label %.lr.ph.us, label %._crit_edge87, !llvm.loop !162

.lr.ph.split.us.us:                               ; preds = %.lr.ph.split.us.us.preheader, %.lr.ph.split.us.us
  %indvars.iv105 = phi i64 [ 0, %.lr.ph.split.us.us.preheader ], [ %indvars.iv.next106, %.lr.ph.split.us.us ]
  %.07479.us.us = phi double [ %60, %.lr.ph.split.us.us.preheader ], [ %84, %.lr.ph.split.us.us ]
  %.07578.us.us = phi double [ %58, %.lr.ph.split.us.us.preheader ], [ %82, %.lr.ph.split.us.us ]
  %76 = getelementptr inbounds nuw double, ptr %23, i64 %indvars.iv105
  %77 = getelementptr inbounds nuw double, ptr %19, i64 %indvars.iv105
  %78 = load double, ptr %77, align 8, !tbaa !75
  %79 = fmul nsz double %8, %78
  %80 = tail call nsz double @llvm.fmuladd.f64(double %79, double %52, double %.07578.us.us)
  %81 = tail call nsz double @llvm.fmuladd.f64(double %54, double %79, double %.07479.us.us)
  %82 = tail call nsz double @llvm.fmuladd.f64(double %47, double %80, double %81)
  %83 = fmul nsz double %80, %50
  %84 = tail call nsz double @llvm.fmuladd.f64(double %56, double %79, double %83)
  %85 = fmul nsz double %42, %80
  %86 = fmul nsz double %11, %79
  %87 = tail call nsz double @llvm.fmuladd.f64(double %85, double %10, double %86)
  store double %87, ptr %76, align 8, !tbaa !75
  %indvars.iv.next106 = add nuw nsw i64 %indvars.iv105, 1
  %exitcond109.not = icmp eq i64 %indvars.iv.next106, %wide.trip.count108
  br i1 %exitcond109.not, label %._crit_edge.us.thread, label %.lr.ph.split.us.us, !llvm.loop !161

._crit_edge.us.thread:                            ; preds = %.lr.ph.split.us.us
  %88 = getelementptr inbounds nuw %struct.BiquadContext, ptr %38, i64 %indvars.iv110, i32 2
  store double %82, ptr %88, align 8, !tbaa !155
  %89 = getelementptr inbounds nuw %struct.BiquadContext, ptr %38, i64 %indvars.iv110, i32 3
  store double %84, ptr %89, align 8, !tbaa !157
  br label %._crit_edge87

.lr.ph86.split:                                   ; preds = %.lr.ph86, %.lr.ph86.split
  %indvars.iv = phi i64 [ %indvars.iv.next, %.lr.ph86.split ], [ %43, %.lr.ph86 ]
  %90 = getelementptr inbounds nuw %struct.BiquadContext, ptr %38, i64 %indvars.iv
  %91 = getelementptr inbounds nuw i8, ptr %90, i64 48
  %92 = load double, ptr %91, align 8, !tbaa !155
  %93 = getelementptr inbounds nuw i8, ptr %90, i64 56
  %94 = load double, ptr %93, align 8, !tbaa !157
  %95 = getelementptr inbounds nuw %struct.BiquadContext, ptr %38, i64 %indvars.iv, i32 2
  store double %92, ptr %95, align 8, !tbaa !155
  %96 = getelementptr inbounds nuw %struct.BiquadContext, ptr %38, i64 %indvars.iv, i32 3
  store double %94, ptr %96, align 8, !tbaa !157
  %indvars.iv.next = add nsw i64 %indvars.iv, -1
  %97 = trunc nuw i64 %indvars.iv to i32
  %98 = icmp sgt i32 %97, 0
  br i1 %98, label %.lr.ph86.split, label %._crit_edge87, !llvm.loop !162

._crit_edge87:                                    ; preds = %.lr.ph86.split, %._crit_edge.us, %._crit_edge.us.thread, %4
  ret i32 0
}